; Function Attrs: mustprogress uwtable
define hidden void @_ZN2lp14random_updaterC2ERNS_10lar_solverERK6vectorIjLb1EjE(ptr noundef nonnull align 8 dereferenceable(36) %this, ptr noundef nonnull align 8 dereferenceable(1888) %lar_solver, ptr nocapture noundef nonnull readonly align 8 dereferenceable(8) %column_indices) unnamed_addr #3 align 2 personality ptr @__gxx_personality_v0 {
entry:
  store i32 0, ptr %this, align 8
  %m_elems.i = getelementptr inbounds i8, ptr %this, i64 8
  tail call void @llvm.memset.p0.i64(ptr noundef nonnull align 8 dereferenceable(16) %m_elems.i, i8 0, i64 16, i1 false)
  %m_lar_solver = getelementptr inbounds i8, ptr %this, i64 24
  store ptr %lar_solver, ptr %m_lar_solver, align 8
  %m_range = getelementptr inbounds i8, ptr %this, i64 32
  store i32 100000, ptr %m_range, align 8
  %0 = load ptr, ptr %column_indices, align 8
  %cmp.i.i = icmp eq ptr %0, null
  br i1 %cmp.i.i, label %for.end, label %_ZNK6vectorIjLb1EjE3endEv.exit

_ZNK6vectorIjLb1EjE3endEv.exit:                   ; preds = %entry
  %arrayidx.i.i = getelementptr inbounds i8, ptr %0, i64 -4
  %1 = load i32, ptr %arrayidx.i.i, align 4
  %2 = zext i32 %1 to i64
  %add.ptr.i = getelementptr inbounds i32, ptr %0, i64 %2
  %cmp.not5 = icmp eq i32 %1, 0
  br i1 %cmp.not5, label %for.end, label %for.body.lr.ph

for.body.lr.ph:                                   ; preds = %_ZNK6vectorIjLb1EjE3endEv.exit
  %m_index.i.i = getelementptr inbounds i8, ptr %this, i64 16
  br label %for.body

for.body:                                         ; preds = %for.body.lr.ph, %for.inc
  %__begin1.06 = phi ptr [ %0, %for.body.lr.ph ], [ %incdec.ptr, %for.inc ]
  %3 = load i32, ptr %__begin1.06, align 4
  %4 = load ptr, ptr %m_index.i.i, align 8
  %cmp.i.i.i = icmp eq ptr %4, null
  br i1 %cmp.i.i.i, label %if.then.i, label %_ZNK6vectorIjLb0EjE4sizeEv.exit.i.i

_ZNK6vectorIjLb0EjE4sizeEv.exit.i.i:              ; preds = %for.body
  %arrayidx.i.i.i = getelementptr inbounds i8, ptr %4, i64 -4
  %5 = load i32, ptr %arrayidx.i.i.i, align 4
  %cmp.i.i4 = icmp ugt i32 %5, %3
  br i1 %cmp.i.i4, label %land.lhs.true.i.i, label %if.then.i

land.lhs.true.i.i:                                ; preds = %_ZNK6vectorIjLb0EjE4sizeEv.exit.i.i
  %idxprom.i.i.i = zext i32 %3 to i64
  %arrayidx.i4.i.i = getelementptr inbounds i32, ptr %4, i64 %idxprom.i.i.i
  %6 = load i32, ptr %arrayidx.i4.i.i, align 4
  %7 = load i32, ptr %this, align 8
  %cmp4.i.i = icmp ult i32 %6, %7
  br i1 %cmp4.i.i, label %_ZNK16indexed_uint_set8containsEj.exit.i, label %if.then.i

_ZNK16indexed_uint_set8containsEj.exit.i:         ; preds = %land.lhs.true.i.i
  %8 = load ptr, ptr %m_elems.i, align 8
  %idxprom.i7.i.i = zext i32 %6 to i64
  %arrayidx.i8.i.i = getelementptr inbounds i32, ptr %8, i64 %idxprom.i7.i.i
  %9 = load i32, ptr %arrayidx.i8.i.i, align 4
  %cmp8.i.i = icmp eq i32 %9, %3
  br i1 %cmp8.i.i, label %for.inc, label %if.then.i

if.then.i:                                        ; preds = %_ZNK16indexed_uint_set8containsEj.exit.i, %land.lhs.true.i.i, %_ZNK6vectorIjLb0EjE4sizeEv.exit.i.i, %for.body
  invoke void @_ZN16indexed_uint_set12insert_freshEj(ptr noundef nonnull align 8 dereferenceable(24) %this, i32 noundef %3)
          to label %for.inc unwind label %lpad

for.inc:                                          ; preds = %_ZNK16indexed_uint_set8containsEj.exit.i, %if.then.i
  %incdec.ptr = getelementptr inbounds i8, ptr %__begin1.06, i64 4
  %cmp.not = icmp eq ptr %incdec.ptr, %add.ptr.i
  br i1 %cmp.not, label %for.end, label %for.body

lpad:                                             ; preds = %if.then.i
  %10 = landingpad { ptr, i32 }
          cleanup
  tail call void @_ZN16indexed_uint_setD2Ev(ptr noundef nonnull align 8 dereferenceable(24) %this) #10
  resume { ptr, i32 } %10

for.end:                                          ; preds = %for.inc, %entry, %_ZNK6vectorIjLb1EjE3endEv.exit
  ret void
}